target datalayout = "e-m:e-p270:32:32-p271:32:32-p272:64:64-i64:64-i128:128-f80:128-n8:16:32:64-S128"
target triple = "x86_64-pc-linux-gnu"

%struct.jpeg_decompress_struct = type { ptr, ptr, ptr, ptr, i32, i32, ptr, i32, i32, i32, i32, i32, i32, i32, double, i32, i32, i32, i32, i32, i32, i32, i32, i32, i32, i32, i32, i32, i32, i32, i32, i32, i32, ptr, i32, i32, i32, i32, i32, ptr, [4 x ptr], [4 x ptr], [4 x ptr], i32, ptr, i32, i32, [16 x i8], [16 x i8], [16 x i8], i32, i32, i8, i8, i8, i16, i16, i32, i8, i32, ptr, i32, i32, i32, i32, ptr, i32, [4 x ptr], i32, i32, i32, [10 x i32], i32, i32, i32, i32, i32, ptr, ptr, ptr, ptr, ptr, ptr, ptr, ptr, ptr, ptr, ptr }
%struct.jpeg_error_mgr = type { ptr, ptr, ptr, ptr, ptr, i32, %union.anon, i32, i64, ptr, i32, ptr, i32, i32 }
%union.anon = type { [8 x i32], [48 x i8] }

; Function Attrs: nounwind uwtable
define hidden void @jCreaDecompress(ptr noundef %0, i32 noundef %1, i64 noundef %2) #0 {
  %4 = alloca ptr, align 8
  %5 = alloca i32, align 4
  %6 = alloca i64, align 8
  %7 = alloca i32, align 4
  %8 = alloca ptr, align 8
  %9 = alloca ptr, align 8
  store ptr %0, ptr %4, align 8
  store i32 %1, ptr %5, align 4
  store i64 %2, ptr %6, align 8
  %10 = load ptr, ptr %4, align 8
  %11 = getelementptr inbounds %struct.jpeg_decompress_struct, ptr %10, i32 0, i32 1
  store ptr null, ptr %11, align 8
  %12 = load i32, ptr %5, align 4
  %13 = icmp ne i32 %12, 62
  br i1 %13, label %14, label %36

14:                                               ; preds = %3
  %15 = load ptr, ptr %4, align 8
  %16 = getelementptr inbounds %struct.jpeg_decompress_struct, ptr %15, i32 0, i32 0
  %17 = load ptr, ptr %16, align 8
  %18 = getelementptr inbounds %struct.jpeg_error_mgr, ptr %17, i32 0, i32 5
  store i32 12, ptr %18, align 8
  %19 = load ptr, ptr %4, align 8
  %20 = getelementptr inbounds %struct.jpeg_decompress_struct, ptr %19, i32 0, i32 0
  %21 = load ptr, ptr %20, align 8
  %22 = getelementptr inbounds %struct.jpeg_error_mgr, ptr %21, i32 0, i32 6
  %23 = getelementptr inbounds [8 x i32], ptr %22, i64 0, i64 0
  store i32 62, ptr %23, align 4
  %24 = load i32, ptr %5, align 4
  %25 = load ptr, ptr %4, align 8
  %26 = getelementptr inbounds %struct.jpeg_decompress_struct, ptr %25, i32 0, i32 0
  %27 = load ptr, ptr %26, align 8
  %28 = getelementptr inbounds %struct.jpeg_error_mgr, ptr %27, i32 0, i32 6
  %29 = getelementptr inbounds [8 x i32], ptr %28, i64 0, i64 1
  store i32 %24, ptr %29, align 4
  %30 = load ptr, ptr %4, align 8
  %31 = getelementptr inbounds %struct.jpeg_decompress_struct, ptr %30, i32 0, i32 0
  %32 = load ptr, ptr %31, align 8
  %33 = getelementptr inbounds %struct.jpeg_error_mgr, ptr %32, i32 0, i32 0
  %34 = load ptr, ptr %33, align 8
  %35 = load ptr, ptr %4, align 8
  call void %34(ptr noundef %35)
  br label %36

36:                                               ; preds = %14, %3
  %37 = load i64, ptr %6, align 8
  %38 = icmp ne i64 %37, 632
  br i1 %38, label %39, label %62

39:                                               ; preds = %36
  %40 = load ptr, ptr %4, align 8
  %41 = getelementptr inbounds %struct.jpeg_decompress_struct, ptr %40, i32 0, i32 0
  %42 = load ptr, ptr %41, align 8
  %43 = getelementptr inbounds %struct.jpeg_error_mgr, ptr %42, i32 0, i32 5
  store i32 21, ptr %43, align 8
  %44 = load ptr, ptr %4, align 8
  %45 = getelementptr inbounds %struct.jpeg_decompress_struct, ptr %44, i32 0, i32 0
  %46 = load ptr, ptr %45, align 8
  %47 = getelementptr inbounds %struct.jpeg_error_mgr, ptr %46, i32 0, i32 6
  %48 = getelementptr inbounds [8 x i32], ptr %47, i64 0, i64 0
  store i32 632, ptr %48, align 4
  %49 = load i64, ptr %6, align 8
  %50 = trunc i64 %49 to i32
  %51 = load ptr, ptr %4, align 8
  %52 = getelementptr inbounds %struct.jpeg_decompress_struct, ptr %51, i32 0, i32 0
  %53 = load ptr, ptr %52, align 8
  %54 = getelementptr inbounds %struct.jpeg_error_mgr, ptr %53, i32 0, i32 6
  %55 = getelementptr inbounds [8 x i32], ptr %54, i64 0, i64 1
  store i32 %50, ptr %55, align 4
  %56 = load ptr, ptr %4, align 8
  %57 = getelementptr inbounds %struct.jpeg_decompress_struct, ptr %56, i32 0, i32 0
  %58 = load ptr, ptr %57, align 8
  %59 = getelementptr inbounds %struct.jpeg_error_mgr, ptr %58, i32 0, i32 0
  %60 = load ptr, ptr %59, align 8
  %61 = load ptr, ptr %4, align 8
  call void %60(ptr noundef %61)
  br label %62

62:                                               ; preds = %39, %36
  %63 = load ptr, ptr %4, align 8
  %64 = getelementptr inbounds %struct.jpeg_decompress_struct, ptr %63, i32 0, i32 0
  %65 = load ptr, ptr %64, align 8
  store ptr %65, ptr %8, align 8
  %66 = load ptr, ptr %4, align 8
  %67 = getelementptr inbounds %struct.jpeg_decompress_struct, ptr %66, i32 0, i32 3
  %68 = load ptr, ptr %67, align 8
  store ptr %68, ptr %9, align 8
  %69 = load ptr, ptr %4, align 8
  call void @llvm.memset.p0.i64(ptr align 1 %69, i8 0, i64 632, i1 false)
  %70 = load ptr, ptr %8, align 8
  %71 = load ptr, ptr %4, align 8
  %72 = getelementptr inbounds %struct.jpeg_decompress_struct, ptr %71, i32 0, i32 0
  store ptr %70, ptr %72, align 8
  %73 = load ptr, ptr %9, align 8
  %74 = load ptr, ptr %4, align 8
  %75 = getelementptr inbounds %struct.jpeg_decompress_struct, ptr %74, i32 0, i32 3
  store ptr %73, ptr %75, align 8
  %76 = load ptr, ptr %4, align 8
  %77 = getelementptr inbounds %struct.jpeg_decompress_struct, ptr %76, i32 0, i32 4
  store i32 1, ptr %77, align 8
  %78 = load ptr, ptr %4, align 8
  call void @jIMemMgr(ptr noundef %78)
  %79 = load ptr, ptr %4, align 8
  %80 = getelementptr inbounds %struct.jpeg_decompress_struct, ptr %79, i32 0, i32 2
  store ptr null, ptr %80, align 8
  %81 = load ptr, ptr %4, align 8
  %82 = getelementptr inbounds %struct.jpeg_decompress_struct, ptr %81, i32 0, i32 6
  store ptr null, ptr %82, align 8
  store i32 0, ptr %7, align 4
  br label %83

83:                                               ; preds = %92, %62
  %84 = load i32, ptr %7, align 4
  %85 = icmp slt i32 %84, 4
  br i1 %85, label %86, label %95

86:                                               ; preds = %83
  %87 = load ptr, ptr %4, align 8
  %88 = getelementptr inbounds %struct.jpeg_decompress_struct, ptr %87, i32 0, i32 40
  %89 = load i32, ptr %7, align 4
  %90 = sext i32 %89 to i64
  %91 = getelementptr inbounds [4 x ptr], ptr %88, i64 0, i64 %90
  store ptr null, ptr %91, align 8
  br label %92

92:                                               ; preds = %86
  %93 = load i32, ptr %7, align 4
  %94 = add nsw i32 %93, 1
  store i32 %94, ptr %7, align 4
  br label %83, !llvm.loop !6

95:                                               ; preds = %83
  store i32 0, ptr %7, align 4
  br label %96

96:                                               ; preds = %110, %95
  %97 = load i32, ptr %7, align 4
  %98 = icmp slt i32 %97, 4
  br i1 %98, label %99, label %113

99:                                               ; preds = %96
  %100 = load ptr, ptr %4, align 8
  %101 = getelementptr inbounds %struct.jpeg_decompress_struct, ptr %100, i32 0, i32 41
  %102 = load i32, ptr %7, align 4
  %103 = sext i32 %102 to i64
  %104 = getelementptr inbounds [4 x ptr], ptr %101, i64 0, i64 %103
  store ptr null, ptr %104, align 8
  %105 = load ptr, ptr %4, align 8
  %106 = getelementptr inbounds %struct.jpeg_decompress_struct, ptr %105, i32 0, i32 42
  %107 = load i32, ptr %7, align 4
  %108 = sext i32 %107 to i64
  %109 = getelementptr inbounds [4 x ptr], ptr %106, i64 0, i64 %108
  store ptr null, ptr %109, align 8
  br label %110

110:                                              ; preds = %99
  %111 = load i32, ptr %7, align 4
  %112 = add nsw i32 %111, 1
  store i32 %112, ptr %7, align 4
  br label %96, !llvm.loop !8

113:                                              ; preds = %96
  %114 = load ptr, ptr %4, align 8
  %115 = getelementptr inbounds %struct.jpeg_decompress_struct, ptr %114, i32 0, i32 60
  store ptr null, ptr %115, align 8
  %116 = load ptr, ptr %4, align 8
  call void @jIMReader(ptr noundef %116)
  %117 = load ptr, ptr %4, align 8
  call void @jIInCtlr(ptr noundef %117)
  %118 = load ptr, ptr %4, align 8
  %119 = getelementptr inbounds %struct.jpeg_decompress_struct, ptr %118, i32 0, i32 5
  store i32 200, ptr %119, align 4
  ret void
}