; Function Attrs: nounwind uwtable
define hidden void @jCreaDecompress(ptr noundef %0, i32 noundef %1, i64 noundef %2) local_unnamed_addr #0 {
  %4 = getelementptr inbounds i8, ptr %0, i64 8
  store ptr null, ptr %4, align 8
  %.not = icmp eq i32 %1, 62
  br i1 %.not, label %14, label %5

5:                                                ; preds = %3
  %6 = load ptr, ptr %0, align 8
  %7 = getelementptr inbounds i8, ptr %6, i64 40
  store i32 12, ptr %7, align 8
  %8 = load ptr, ptr %0, align 8
  %9 = getelementptr inbounds i8, ptr %8, i64 44
  store i32 62, ptr %9, align 4
  %10 = load ptr, ptr %0, align 8
  %11 = getelementptr inbounds i8, ptr %10, i64 48
  store i32 %1, ptr %11, align 4
  %12 = load ptr, ptr %0, align 8
  %13 = load ptr, ptr %12, align 8
  tail call void %13(ptr noundef nonnull %0) #3
  br label %14

14:                                               ; preds = %5, %3
  %.not41 = icmp eq i64 %2, 632
  br i1 %.not41, label %.preheader, label %15

15:                                               ; preds = %14
  %16 = load ptr, ptr %0, align 8
  %17 = getelementptr inbounds i8, ptr %16, i64 40
  store i32 21, ptr %17, align 8
  %18 = load ptr, ptr %0, align 8
  %19 = getelementptr inbounds i8, ptr %18, i64 44
  store i32 632, ptr %19, align 4
  %20 = trunc i64 %2 to i32
  %21 = load ptr, ptr %0, align 8
  %22 = getelementptr inbounds i8, ptr %21, i64 48
  store i32 %20, ptr %22, align 4
  %23 = load ptr, ptr %0, align 8
  %24 = load ptr, ptr %23, align 8
  tail call void %24(ptr noundef nonnull %0) #3
  br label %.preheader

.preheader:                                       ; preds = %15, %14
  %25 = load ptr, ptr %0, align 8
  %26 = getelementptr inbounds i8, ptr %0, i64 24
  %27 = load ptr, ptr %26, align 8
  %28 = getelementptr inbounds i8, ptr %0, i64 8
  tail call void @llvm.memset.p0.i64(ptr noundef nonnull align 1 dereferenceable(632) %28, i8 0, i64 624, i1 false)
  store ptr %25, ptr %0, align 8
  store ptr %27, ptr %26, align 8
  %29 = getelementptr inbounds i8, ptr %0, i64 32
  store i32 1, ptr %29, align 8
  tail call void @jIMemMgr(ptr noundef nonnull %0) #3
  %30 = getelementptr inbounds i8, ptr %0, i64 16
  store ptr null, ptr %30, align 8
  %31 = getelementptr inbounds i8, ptr %0, i64 40
  store ptr null, ptr %31, align 8
  %32 = getelementptr inbounds i8, ptr %0, i64 200
  %33 = getelementptr inbounds i8, ptr %0, i64 400
  store ptr null, ptr %33, align 8
  tail call void @llvm.memset.p0.i64(ptr noundef nonnull align 8 dereferenceable(96) %32, i8 0, i64 96, i1 false)
  tail call void @jIMReader(ptr noundef nonnull %0) #3
  tail call void @jIInCtlr(ptr noundef nonnull %0) #3
  %34 = getelementptr inbounds i8, ptr %0, i64 36
  store i32 200, ptr %34, align 4
  ret void
}